target datalayout = "e-m:e-p270:32:32-p271:32:32-p272:64:64-i64:64-i128:128-f80:128-n8:16:32:64-S128"
target triple = "x86_64-pc-linux-gnu"

; Function Attrs: nounwind uwtable
define internal void @scale1d_2t1_i(ptr noundef %0, i32 noundef %1, i32 noundef %2, i32 noundef %3, ptr noundef %4, i32 noundef %5, i32 noundef %6, i32 noundef %7) #0 {
  %9 = alloca ptr, align 8
  %10 = alloca i32, align 4
  %11 = alloca i32, align 4
  %12 = alloca i32, align 4
  %13 = alloca ptr, align 8
  %14 = alloca i32, align 4
  %15 = alloca i32, align 4
  %16 = alloca i32, align 4
  %17 = alloca ptr, align 8
  %18 = alloca i32, align 4
  %19 = alloca i32, align 4
  %20 = alloca i32, align 4
  store ptr %0, ptr %9, align 8
  store i32 %1, ptr %10, align 4
  store i32 %2, ptr %11, align 4
  store i32 %3, ptr %12, align 4
  store ptr %4, ptr %13, align 8
  store i32 %5, ptr %14, align 4
  store i32 %6, ptr %15, align 4
  store i32 %7, ptr %16, align 4
  %21 = load ptr, ptr %13, align 8
  %22 = load i32, ptr %16, align 4
  %23 = load i32, ptr %14, align 4
  %24 = mul i32 %22, %23
  %25 = zext i32 %24 to i64
  %26 = getelementptr inbounds i8, ptr %21, i64 %25
  store ptr %26, ptr %17, align 8
  %27 = load i32, ptr %10, align 4
  %28 = mul nsw i32 %27, 2
  store i32 %28, ptr %10, align 4
  %29 = load ptr, ptr %9, align 8
  %30 = getelementptr inbounds i8, ptr %29, i64 0
  %31 = load i8, ptr %30, align 1
  %32 = load ptr, ptr %13, align 8
  %33 = getelementptr inbounds i8, ptr %32, i64 0
  store i8 %31, ptr %33, align 1
  %34 = load i32, ptr %10, align 4
  %35 = load ptr, ptr %9, align 8
  %36 = sext i32 %34 to i64
  %37 = getelementptr inbounds i8, ptr %35, i64 %36
  store ptr %37, ptr %9, align 8
  %38 = load i32, ptr %14, align 4
  %39 = load ptr, ptr %13, align 8
  %40 = sext i32 %38 to i64
  %41 = getelementptr inbounds i8, ptr %39, i64 %40
  store ptr %41, ptr %13, align 8
  br label %42

42:                                               ; preds = %46, %8
  %43 = load ptr, ptr %13, align 8
  %44 = load ptr, ptr %17, align 8
  %45 = icmp ult ptr %43, %44
  br i1 %45, label %46, label %84

46:                                               ; preds = %42
  %47 = load ptr, ptr %9, align 8
  %48 = load i32, ptr %10, align 4
  %49 = sub nsw i32 0, %48
  %50 = sext i32 %49 to i64
  %51 = getelementptr inbounds i8, ptr %47, i64 %50
  %52 = load i8, ptr %51, align 1
  %53 = zext i8 %52 to i32
  %54 = mul nsw i32 3, %53
  store i32 %54, ptr %18, align 4
  %55 = load ptr, ptr %9, align 8
  %56 = getelementptr inbounds i8, ptr %55, i64 0
  %57 = load i8, ptr %56, align 1
  %58 = zext i8 %57 to i32
  %59 = mul nsw i32 10, %58
  store i32 %59, ptr %19, align 4
  %60 = load ptr, ptr %9, align 8
  %61 = load i32, ptr %10, align 4
  %62 = sext i32 %61 to i64
  %63 = getelementptr inbounds i8, ptr %60, i64 %62
  %64 = load i8, ptr %63, align 1
  %65 = zext i8 %64 to i32
  %66 = mul nsw i32 3, %65
  store i32 %66, ptr %20, align 4
  %67 = load i32, ptr %18, align 4
  %68 = add i32 8, %67
  %69 = load i32, ptr %19, align 4
  %70 = add i32 %68, %69
  %71 = load i32, ptr %20, align 4
  %72 = add i32 %70, %71
  %73 = lshr i32 %72, 4
  %74 = trunc i32 %73 to i8
  %75 = load ptr, ptr %13, align 8
  store i8 %74, ptr %75, align 1
  %76 = load i32, ptr %10, align 4
  %77 = load ptr, ptr %9, align 8
  %78 = sext i32 %76 to i64
  %79 = getelementptr inbounds i8, ptr %77, i64 %78
  store ptr %79, ptr %9, align 8
  %80 = load i32, ptr %14, align 4
  %81 = load ptr, ptr %13, align 8
  %82 = sext i32 %80 to i64
  %83 = getelementptr inbounds i8, ptr %81, i64 %82
  store ptr %83, ptr %13, align 8
  br label %42, !llvm.loop !18

84:                                               ; preds = %42
  ret void
}