; Function Attrs: nofree norecurse nosync nounwind memory(argmem: readwrite) uwtable
define internal void @scale1d_2t1_i(ptr nocapture noundef readonly %0, i32 noundef %1, i32 %2, i32 %3, ptr noundef writeonly %4, i32 noundef %5, i32 %6, i32 noundef %7) unnamed_addr #3 {
  %9 = mul i32 %7, %5
  %10 = zext i32 %9 to i64
  %11 = getelementptr inbounds i8, ptr %4, i64 %10
  %12 = shl nsw i32 %1, 1
  %13 = load i8, ptr %0, align 1
  store i8 %13, ptr %4, align 1
  %14 = sext i32 %12 to i64
  %15 = sext i32 %5 to i64
  %16 = icmp slt i64 %15, %10
  br i1 %16, label %.lr.ph, label %._crit_edge

.lr.ph:                                           ; preds = %8
  %.02425 = getelementptr inbounds i8, ptr %4, i64 %15
  %17 = getelementptr inbounds i8, ptr %0, i64 %14
  %18 = sub nsw i32 0, %12
  %19 = sext i32 %18 to i64
  br label %20

20:                                               ; preds = %.lr.ph, %20
  %.02427 = phi ptr [ %.02425, %.lr.ph ], [ %.024, %20 ]
  %.026 = phi ptr [ %17, %.lr.ph ], [ %27, %20 ]
  %21 = getelementptr inbounds i8, ptr %.026, i64 %19
  %22 = load i8, ptr %21, align 1
  %23 = zext i8 %22 to i16
  %24 = load i8, ptr %.026, align 1
  %25 = zext i8 %24 to i16
  %26 = mul nuw nsw i16 %25, 10
  %27 = getelementptr inbounds i8, ptr %.026, i64 %14
  %28 = load i8, ptr %27, align 1
  %29 = zext i8 %28 to i16
  %reass.add = add nuw nsw i16 %29, %23
  %reass.mul = mul nuw nsw i16 %reass.add, 3
  %30 = add nuw nsw i16 %26, 8
  %31 = add nuw nsw i16 %30, %reass.mul
  %32 = lshr i16 %31, 4
  %33 = trunc nuw i16 %32 to i8
  store i8 %33, ptr %.02427, align 1
  %.024 = getelementptr inbounds i8, ptr %.02427, i64 %15
  %34 = icmp ult ptr %.024, %11
  br i1 %34, label %20, label %._crit_edge, !llvm.loop !21

._crit_edge:                                      ; preds = %20, %8
  ret void
}